target datalayout = "e-m:e-p270:32:32-p271:32:32-p272:64:64-i64:64-i128:128-f80:128-n8:16:32:64-S128"
target triple = "x86_64-pc-linux-gnu"

%struct.Abc_Ntk_t_ = type { i32, i32, ptr, ptr, ptr, ptr, ptr, ptr, ptr, ptr, ptr, ptr, ptr, [11 x i32], i32, i32, i32, i32, ptr, i32, ptr, ptr, i32, i32, i32, double, i32, %struct.Vec_Int_t_, ptr, ptr, ptr, ptr, ptr, float, i32, ptr, ptr, ptr, ptr, ptr, ptr, ptr, ptr, ptr, ptr, ptr, ptr, ptr, ptr, ptr, ptr, ptr, ptr, ptr, ptr, ptr, ptr }
%struct.Vec_Int_t_ = type { i32, i32, ptr }

@.str = private unnamed_addr constant [30 x i8] c"Shared BDD size = %6d nodes.\0A\00", align 1
@.str.1 = private unnamed_addr constant [49 x i8] c"Abc_NtkDsdGlobal: The network check has failed.\0A\00", align 1

; Function Attrs: nounwind uwtable
define ptr @Abc_NtkDsdGlobal(ptr noundef %0, i32 noundef %1, i32 noundef %2, i32 noundef %3) #0 {
  %5 = alloca ptr, align 8
  %6 = alloca ptr, align 8
  %7 = alloca i32, align 4
  %8 = alloca i32, align 4
  %9 = alloca i32, align 4
  %10 = alloca ptr, align 8
  %11 = alloca ptr, align 8
  %12 = alloca i32, align 4
  store ptr %0, ptr %6, align 8, !tbaa !3
  store i32 %1, ptr %7, align 4, !tbaa !8
  store i32 %2, ptr %8, align 4, !tbaa !8
  store i32 %3, ptr %9, align 4, !tbaa !8
  call void @llvm.lifetime.start.p0(i64 8, ptr %10) #8
  call void @llvm.lifetime.start.p0(i64 8, ptr %11) #8
  %13 = load ptr, ptr %6, align 8, !tbaa !3
  %14 = load i32, ptr %7, align 4, !tbaa !8
  %15 = call ptr @Abc_NtkBuildGlobalBdds(ptr noundef %13, i32 noundef 10000000, i32 noundef 1, i32 noundef 1, i32 noundef 0, i32 noundef %14)
  store ptr %15, ptr %10, align 8, !tbaa !10
  %16 = load ptr, ptr %10, align 8, !tbaa !10
  %17 = icmp eq ptr %16, null
  br i1 %17, label %18, label %19

18:                                               ; preds = %4
  store ptr null, ptr %5, align 8
  store i32 1, ptr %12, align 4
  br label %60

19:                                               ; preds = %4
  %20 = load i32, ptr %7, align 4, !tbaa !8
  %21 = icmp ne i32 %20, 0
  br i1 %21, label %22, label %29

22:                                               ; preds = %19
  %23 = load ptr, ptr %10, align 8, !tbaa !10
  %24 = call i32 @Cudd_ReadKeys(ptr noundef %23)
  %25 = load ptr, ptr %10, align 8, !tbaa !10
  %26 = call i32 @Cudd_ReadDead(ptr noundef %25)
  %27 = sub i32 %24, %26
  %28 = call i32 (ptr, ...) @printf(ptr noundef @.str, i32 noundef %27)
  br label %29

29:                                               ; preds = %22, %19
  %30 = load ptr, ptr %6, align 8, !tbaa !3
  %31 = load i32, ptr %7, align 4, !tbaa !8
  %32 = load i32, ptr %8, align 4, !tbaa !8
  %33 = load i32, ptr %9, align 4, !tbaa !8
  %34 = call ptr @Abc_NtkDsdInternal(ptr noundef %30, i32 noundef %31, i32 noundef %32, i32 noundef %33)
  store ptr %34, ptr %11, align 8, !tbaa !3
  %35 = load ptr, ptr %10, align 8, !tbaa !10
  call void @Extra_StopManager(ptr noundef %35)
  %36 = load ptr, ptr %11, align 8, !tbaa !3
  %37 = icmp eq ptr %36, null
  br i1 %37, label %38, label %39

38:                                               ; preds = %29
  store ptr null, ptr %5, align 8
  store i32 1, ptr %12, align 4
  br label %60

39:                                               ; preds = %29
  %40 = load ptr, ptr %6, align 8, !tbaa !3
  %41 = getelementptr inbounds nuw %struct.Abc_Ntk_t_, ptr %40, i32 0, i32 40
  %42 = load ptr, ptr %41, align 8, !tbaa !12
  %43 = icmp ne ptr %42, null
  br i1 %43, label %44, label %51

44:                                               ; preds = %39
  %45 = load ptr, ptr %6, align 8, !tbaa !3
  %46 = getelementptr inbounds nuw %struct.Abc_Ntk_t_, ptr %45, i32 0, i32 40
  %47 = load ptr, ptr %46, align 8, !tbaa !12
  %48 = call ptr @Abc_NtkDup(ptr noundef %47)
  %49 = load ptr, ptr %11, align 8, !tbaa !3
  %50 = getelementptr inbounds nuw %struct.Abc_Ntk_t_, ptr %49, i32 0, i32 40
  store ptr %48, ptr %50, align 8, !tbaa !12
  br label %51

51:                                               ; preds = %44, %39
  %52 = load ptr, ptr %11, align 8, !tbaa !3
  %53 = call i32 @Abc_NtkCheck(ptr noundef %52)
  %54 = icmp ne i32 %53, 0
  br i1 %54, label %58, label %55

55:                                               ; preds = %51
  %56 = call i32 (ptr, ...) @printf(ptr noundef @.str.1)
  %57 = load ptr, ptr %11, align 8, !tbaa !3
  call void @Abc_NtkDelete(ptr noundef %57)
  store ptr null, ptr %5, align 8
  store i32 1, ptr %12, align 4
  br label %60

58:                                               ; preds = %51
  %59 = load ptr, ptr %11, align 8, !tbaa !3
  store ptr %59, ptr %5, align 8
  store i32 1, ptr %12, align 4
  br label %60

60:                                               ; preds = %58, %55, %38, %18
  call void @llvm.lifetime.end.p0(i64 8, ptr %11) #8
  call void @llvm.lifetime.end.p0(i64 8, ptr %10) #8
  %61 = load ptr, ptr %5, align 8
  ret ptr %61
}