; Function Attrs: nounwind uwtable
define ptr @Abc_NtkDsdGlobal(ptr noundef %0, i32 noundef %1, i32 noundef %2, i32 noundef %3) local_unnamed_addr #0 {
  %5 = tail call ptr @Abc_NtkBuildGlobalBdds(ptr noundef %0, i32 noundef 10000000, i32 noundef 1, i32 noundef 1, i32 noundef 0, i32 noundef %1) #10
  %6 = icmp eq ptr %5, null
  br i1 %6, label %23, label %7

7:                                                ; preds = %4
  %.not = icmp eq i32 %1, 0
  br i1 %.not, label %.split, label %.split19

.split19:                                         ; preds = %7
  %8 = tail call i32 @Cudd_ReadKeys(ptr noundef nonnull %5) #10
  %9 = tail call i32 @Cudd_ReadDead(ptr noundef nonnull %5) #10
  %10 = sub i32 %8, %9
  %11 = tail call i32 (ptr, ...) @printf(ptr noundef nonnull dereferenceable(1) @.str, i32 noundef %10)
  br label %.split

.split:                                           ; preds = %7, %.split19
  %.sink = phi i32 [ %1, %.split19 ], [ 0, %7 ]
  %12 = tail call fastcc ptr @Abc_NtkDsdInternal(ptr noundef %0, i32 noundef %.sink, i32 noundef %2, i32 noundef %3)
  tail call void @Extra_StopManager(ptr noundef nonnull %5) #10
  %13 = icmp eq ptr %12, null
  br i1 %13, label %23, label %14

14:                                               ; preds = %.split
  %15 = getelementptr inbounds nuw i8, ptr %0, i64 328
  %16 = load ptr, ptr %15, align 8, !tbaa !3
  %.not23 = icmp eq ptr %16, null
  br i1 %.not23, label %20, label %17

17:                                               ; preds = %14
  %18 = tail call ptr @Abc_NtkDup(ptr noundef nonnull %16) #10
  %19 = getelementptr inbounds nuw i8, ptr %12, i64 328
  store ptr %18, ptr %19, align 8, !tbaa !3
  br label %20

20:                                               ; preds = %17, %14
  %21 = tail call i32 @Abc_NtkCheck(ptr noundef nonnull %12) #10
  %.not24 = icmp eq i32 %21, 0
  br i1 %.not24, label %22, label %23

22:                                               ; preds = %20
  %puts = tail call i32 @puts(ptr nonnull dereferenceable(1) @str)
  tail call void @Abc_NtkDelete(ptr noundef nonnull %12) #10
  br label %23

23:                                               ; preds = %20, %.split, %4, %22
  %.0 = phi ptr [ null, %22 ], [ null, %4 ], [ null, %.split ], [ %12, %20 ]
  ret ptr %.0
}